; Function Attrs: null_pointer_is_valid sspstrong uwtable
define internal i32 @dissect_atn_ulcs_AE_qualifier_form2(ptr noundef %0, i32 noundef %1, ptr noundef %2, ptr noundef %3, i32 noundef %4) #0 {
  %6 = alloca i32, align 4
  %7 = getelementptr inbounds nuw i8, ptr %2, i64 16
  %8 = load ptr, ptr %7, align 8
  call void @llvm.lifetime.start.p0(i64 4, ptr nonnull %6) #6
  store i32 0, ptr %6, align 4
  %9 = call i32 @dissect_per_integer(ptr noundef %0, i32 noundef %1, ptr noundef %2, ptr noundef %3, i32 noundef %4, ptr noundef nonnull %6)
  %10 = getelementptr inbounds nuw i8, ptr %8, i64 382
  %11 = load i16, ptr %10, align 2
  %.not = icmp eq i16 %11, 0
  br i1 %.not, label %.thread, label %12

12:                                               ; preds = %5
  %13 = getelementptr inbounds nuw i8, ptr %8, i64 380
  %14 = load i16, ptr %13, align 4
  %.not18 = icmp eq i16 %14, 0
  br i1 %.not18, label %15, label %.thread53

15:                                               ; preds = %12
  %16 = getelementptr inbounds nuw i8, ptr %8, i64 240
  %17 = load ptr, ptr %16, align 8
  %18 = getelementptr inbounds nuw i8, ptr %8, i64 236
  %19 = load i32, ptr %18, align 4
  %20 = icmp sgt i32 %19, 0
  br i1 %20, label %.lr.ph.preheader.i.i, label %add_address_to_hash.exit.i

.lr.ph.preheader.i.i:                             ; preds = %15
  %wide.trip.count.i.i = zext nneg i32 %19 to i64
  br label %.lr.ph.i.i

.lr.ph.i.i:                                       ; preds = %.lr.ph.i.i, %.lr.ph.preheader.i.i
  %indvars.iv.i.i = phi i64 [ 0, %.lr.ph.preheader.i.i ], [ %indvars.iv.next.i.i, %.lr.ph.i.i ]
  %.01112.i.i = phi i32 [ 0, %.lr.ph.preheader.i.i ], [ %27, %.lr.ph.i.i ]
  %21 = getelementptr i8, ptr %17, i64 %indvars.iv.i.i
  %22 = load i8, ptr %21, align 1
  %23 = zext i8 %22 to i32
  %24 = add i32 %.01112.i.i, %23
  %25 = mul i32 %24, 1025
  %26 = lshr i32 %25, 6
  %27 = xor i32 %26, %25
  %indvars.iv.next.i.i = add nuw nsw i64 %indvars.iv.i.i, 1
  %exitcond.not.i.i = icmp eq i64 %indvars.iv.next.i.i, %wide.trip.count.i.i
  br i1 %exitcond.not.i.i, label %add_address_to_hash.exit.i, label %.lr.ph.i.i, !llvm.loop !6

add_address_to_hash.exit.i:                       ; preds = %.lr.ph.i.i, %15
  %.011.lcssa.i.i = phi i32 [ 0, %15 ], [ %27, %.lr.ph.i.i ]
  %28 = getelementptr inbounds nuw i8, ptr %8, i64 216
  %29 = load ptr, ptr %28, align 8
  %30 = getelementptr inbounds nuw i8, ptr %8, i64 212
  %31 = load i32, ptr %30, align 4
  %32 = icmp sgt i32 %31, 0
  br i1 %32, label %.lr.ph.preheader.i10.i, label %.loopexit

.lr.ph.preheader.i10.i:                           ; preds = %add_address_to_hash.exit.i
  %wide.trip.count.i11.i = zext nneg i32 %31 to i64
  br label %.lr.ph.i12.i

.lr.ph.i12.i:                                     ; preds = %.lr.ph.i12.i, %.lr.ph.preheader.i10.i
  %indvars.iv.i13.i = phi i64 [ 0, %.lr.ph.preheader.i10.i ], [ %indvars.iv.next.i15.i, %.lr.ph.i12.i ]
  %.01112.i14.i = phi i32 [ %.011.lcssa.i.i, %.lr.ph.preheader.i10.i ], [ %39, %.lr.ph.i12.i ]
  %33 = getelementptr i8, ptr %29, i64 %indvars.iv.i13.i
  %34 = load i8, ptr %33, align 1
  %35 = zext i8 %34 to i32
  %36 = add i32 %.01112.i14.i, %35
  %37 = mul i32 %36, 1025
  %38 = lshr i32 %37, 6
  %39 = xor i32 %38, %37
  %indvars.iv.next.i15.i = add nuw nsw i64 %indvars.iv.i13.i, 1
  %exitcond.not.i16.i = icmp eq i64 %indvars.iv.next.i15.i, %wide.trip.count.i11.i
  br i1 %exitcond.not.i16.i, label %.loopexit, label %.lr.ph.i12.i, !llvm.loop !6

.loopexit:                                        ; preds = %.lr.ph.i12.i, %add_address_to_hash.exit.i
  %.011.lcssa.i9.i = phi i32 [ %.011.lcssa.i.i, %add_address_to_hash.exit.i ], [ %39, %.lr.ph.i12.i ]
  %40 = shl i32 %.011.lcssa.i.i, 16
  %41 = zext i16 %11 to i32
  %42 = or disjoint i32 %40, %41
  %43 = shl i32 %.011.lcssa.i9.i, 24
  %44 = or i32 %43, %42
  %45 = load ptr, ptr @atn_conversation_tree, align 8
  %46 = call ptr @wmem_tree_lookup32(ptr noundef %45, i32 noundef %44)
  %.pr.pre = load i16, ptr %10, align 2
  %47 = icmp eq i16 %.pr.pre, 0
  br i1 %47, label %.thread, label %82

.thread:                                          ; preds = %5, %.loopexit
  %.042 = phi ptr [ %46, %.loopexit ], [ null, %5 ]
  %48 = getelementptr inbounds nuw i8, ptr %8, i64 380
  %49 = load i16, ptr %48, align 4
  %.not20 = icmp eq i16 %49, 0
  br i1 %.not20, label %82, label %50

50:                                               ; preds = %.thread
  %51 = getelementptr inbounds nuw i8, ptr %8, i64 216
  %52 = load ptr, ptr %51, align 8
  %53 = getelementptr inbounds nuw i8, ptr %8, i64 212
  %54 = load i32, ptr %53, align 4
  %55 = icmp sgt i32 %54, 0
  br i1 %55, label %.lr.ph.preheader.i.i32, label %add_address_to_hash.exit.i22

.lr.ph.preheader.i.i32:                           ; preds = %50
  %wide.trip.count.i.i33 = zext nneg i32 %54 to i64
  br label %.lr.ph.i.i34

.lr.ph.i.i34:                                     ; preds = %.lr.ph.i.i34, %.lr.ph.preheader.i.i32
  %indvars.iv.i.i35 = phi i64 [ 0, %.lr.ph.preheader.i.i32 ], [ %indvars.iv.next.i.i37, %.lr.ph.i.i34 ]
  %.01112.i.i36 = phi i32 [ 0, %.lr.ph.preheader.i.i32 ], [ %62, %.lr.ph.i.i34 ]
  %56 = getelementptr i8, ptr %52, i64 %indvars.iv.i.i35
  %57 = load i8, ptr %56, align 1
  %58 = zext i8 %57 to i32
  %59 = add i32 %.01112.i.i36, %58
  %60 = mul i32 %59, 1025
  %61 = lshr i32 %60, 6
  %62 = xor i32 %61, %60
  %indvars.iv.next.i.i37 = add nuw nsw i64 %indvars.iv.i.i35, 1
  %exitcond.not.i.i38 = icmp eq i64 %indvars.iv.next.i.i37, %wide.trip.count.i.i33
  br i1 %exitcond.not.i.i38, label %add_address_to_hash.exit.i22, label %.lr.ph.i.i34, !llvm.loop !6

add_address_to_hash.exit.i22:                     ; preds = %.lr.ph.i.i34, %50
  %.011.lcssa.i.i23 = phi i32 [ 0, %50 ], [ %62, %.lr.ph.i.i34 ]
  %63 = getelementptr inbounds nuw i8, ptr %8, i64 240
  %64 = load ptr, ptr %63, align 8
  %65 = getelementptr inbounds nuw i8, ptr %8, i64 236
  %66 = load i32, ptr %65, align 4
  %67 = icmp sgt i32 %66, 0
  br i1 %67, label %.lr.ph.preheader.i10.i25, label %find_atn_conversation.exit39

.lr.ph.preheader.i10.i25:                         ; preds = %add_address_to_hash.exit.i22
  %wide.trip.count.i11.i26 = zext nneg i32 %66 to i64
  br label %.lr.ph.i12.i27

.lr.ph.i12.i27:                                   ; preds = %.lr.ph.i12.i27, %.lr.ph.preheader.i10.i25
  %indvars.iv.i13.i28 = phi i64 [ 0, %.lr.ph.preheader.i10.i25 ], [ %indvars.iv.next.i15.i30, %.lr.ph.i12.i27 ]
  %.01112.i14.i29 = phi i32 [ %.011.lcssa.i.i23, %.lr.ph.preheader.i10.i25 ], [ %74, %.lr.ph.i12.i27 ]
  %68 = getelementptr i8, ptr %64, i64 %indvars.iv.i13.i28
  %69 = load i8, ptr %68, align 1
  %70 = zext i8 %69 to i32
  %71 = add i32 %.01112.i14.i29, %70
  %72 = mul i32 %71, 1025
  %73 = lshr i32 %72, 6
  %74 = xor i32 %73, %72
  %indvars.iv.next.i15.i30 = add nuw nsw i64 %indvars.iv.i13.i28, 1
  %exitcond.not.i16.i31 = icmp eq i64 %indvars.iv.next.i15.i30, %wide.trip.count.i11.i26
  br i1 %exitcond.not.i16.i31, label %find_atn_conversation.exit39, label %.lr.ph.i12.i27, !llvm.loop !6

find_atn_conversation.exit39:                     ; preds = %.lr.ph.i12.i27, %add_address_to_hash.exit.i22
  %.011.lcssa.i9.i24 = phi i32 [ %.011.lcssa.i.i23, %add_address_to_hash.exit.i22 ], [ %74, %.lr.ph.i12.i27 ]
  %75 = shl i32 %.011.lcssa.i.i23, 16
  %76 = zext i16 %49 to i32
  %77 = or disjoint i32 %75, %76
  %78 = shl i32 %.011.lcssa.i9.i24, 24
  %79 = or i32 %78, %77
  %80 = load ptr, ptr @atn_conversation_tree, align 8
  %81 = call ptr @wmem_tree_lookup32(ptr noundef %80, i32 noundef %79)
  br label %82

82:                                               ; preds = %find_atn_conversation.exit39, %.thread, %.loopexit
  %.1 = phi ptr [ %46, %.loopexit ], [ %81, %find_atn_conversation.exit39 ], [ %.042, %.thread ]
  %.not21 = icmp eq ptr %.1, null
  br i1 %.not21, label %.thread53, label %83

83:                                               ; preds = %82
  %84 = load i32, ptr %6, align 4
  store i32 %84, ptr %.1, align 4
  br label %.thread53

.thread53:                                        ; preds = %12, %83, %82
  call void @llvm.lifetime.end.p0(i64 4, ptr nonnull %6) #6
  ret i32 %9
}